target datalayout = "e-m:e-p270:32:32-p271:32:32-p272:64:64-i64:64-i128:128-f80:128-n8:16:32:64-S128"
target triple = "x86_64-pc-linux-gnu"

%struct.OSSL_TIME = type { i64 }

@fake_now_lock = internal global ptr null, align 8
@fake_now = internal global %struct.OSSL_TIME zeroinitializer, align 8

; Function Attrs: inlinehint nounwind uwtable
define internal i64 @ossl_ticks2time(i64 noundef %0) #5 {
  %2 = alloca %struct.OSSL_TIME, align 8
  %3 = alloca i64, align 8
  store i64 %0, ptr %3, align 8, !tbaa !62
  %4 = load i64, ptr %3, align 8, !tbaa !62
  %5 = getelementptr inbounds nuw %struct.OSSL_TIME, ptr %2, i32 0, i32 0
  store i64 %4, ptr %5, align 8, !tbaa !72
  %6 = getelementptr inbounds nuw %struct.OSSL_TIME, ptr %2, i32 0, i32 0
  %7 = load i64, ptr %6, align 8
  ret i64 %7
}

; Function Attrs: inlinehint nounwind uwtable
define internal i64 @ossl_time_zero() #5 {
  %1 = alloca %struct.OSSL_TIME, align 8
  %2 = call i64 @ossl_ticks2time(i64 noundef 0)
  %3 = getelementptr inbounds nuw %struct.OSSL_TIME, ptr %1, i32 0, i32 0
  store i64 %2, ptr %3, align 8
  %4 = getelementptr inbounds nuw %struct.OSSL_TIME, ptr %1, i32 0, i32 0
  %5 = load i64, ptr %4, align 8
  ret i64 %5
}

; Function Attrs: nounwind uwtable
define internal i64 @qtest_get_time() #0 {
  %1 = alloca %struct.OSSL_TIME, align 8
  %2 = alloca %struct.OSSL_TIME, align 8
  %3 = alloca i32, align 4
  call void @llvm.lifetime.start.p0(i64 8, ptr %2) #8
  %4 = load ptr, ptr @fake_now_lock, align 8, !tbaa !56
  %5 = call i32 @CRYPTO_THREAD_read_lock(ptr noundef %4)
  %6 = icmp ne i32 %5, 0
  br i1 %6, label %10, label %7

7:                                                ; preds = %0
  %8 = call i64 @ossl_time_zero()
  %9 = getelementptr inbounds nuw %struct.OSSL_TIME, ptr %1, i32 0, i32 0
  store i64 %8, ptr %9, align 8
  store i32 1, ptr %3, align 4
  br label %13

10:                                               ; preds = %0
  call void @llvm.memcpy.p0.p0.i64(ptr align 8 %2, ptr align 8 @fake_now, i64 8, i1 false), !tbaa.struct !71
  %11 = load ptr, ptr @fake_now_lock, align 8, !tbaa !56
  %12 = call i32 @CRYPTO_THREAD_unlock(ptr noundef %11)
  call void @llvm.memcpy.p0.p0.i64(ptr align 8 %1, ptr align 8 %2, i64 8, i1 false), !tbaa.struct !71
  store i32 1, ptr %3, align 4
  br label %13

13:                                               ; preds = %10, %7
  call void @llvm.lifetime.end.p0(i64 8, ptr %2) #8
  %14 = getelementptr inbounds nuw %struct.OSSL_TIME, ptr %1, i32 0, i32 0
  %15 = load i64, ptr %14, align 8
  ret i64 %15
}