; Function Attrs: nounwind uwtable
define internal fastcc i64 @qtest_get_time() unnamed_addr #0 {
  %1 = load ptr, ptr @fake_now_lock, align 8, !tbaa !42
  %2 = tail call i32 @CRYPTO_THREAD_read_lock(ptr noundef %1) #10
  %.not = icmp eq i32 %2, 0
  br i1 %.not, label %6, label %3

3:                                                ; preds = %0
  %.sroa.0.0.copyload = load i64, ptr @fake_now.0, align 8, !tbaa !46
  %4 = load ptr, ptr @fake_now_lock, align 8, !tbaa !42
  %5 = tail call i32 @CRYPTO_THREAD_unlock(ptr noundef %4) #10
  br label %6

6:                                                ; preds = %0, %3
  %.sroa.02.0 = phi i64 [ %.sroa.0.0.copyload, %3 ], [ 0, %0 ]
  ret i64 %.sroa.02.0
}